target datalayout = "e-m:e-p270:32:32-p271:32:32-p272:64:64-i64:64-i128:128-f80:128-n8:16:32:64-S128"
target triple = "x86_64-pc-linux-gnu"

%struct.dsa_area_control = type { %struct.dsa_segment_header, i32, [1024 x i32], [16 x i64], [38 x %struct.dsa_area_pool], i64, i64, i64, i64, i64, i32, i8, i64, i32, %struct.LWLock }
%struct.dsa_segment_header = type { i32, i64, i64, i64, i64, i64, i8 }
%struct.dsa_area_pool = type { %struct.LWLock, [4 x i64] }
%struct.LWLock = type { i16, %struct.pg_atomic_uint32, %struct.proclist_head }
%struct.pg_atomic_uint32 = type { i32 }
%struct.proclist_head = type { i32, i32 }

; Function Attrs: nounwind uwtable
define dso_local void @dsa_release_in_place(ptr noundef %0) #0 {
  %2 = alloca ptr, align 8
  %3 = alloca ptr, align 8
  %4 = alloca i32, align 4
  %5 = alloca i32, align 4
  store ptr %0, ptr %2, align 8
  call void @llvm.lifetime.start.p0(i64 8, ptr %3) #8
  %6 = load ptr, ptr %2, align 8
  store ptr %6, ptr %3, align 8
  call void @llvm.lifetime.start.p0(i64 4, ptr %4) #8
  %7 = load ptr, ptr %3, align 8
  %8 = getelementptr inbounds nuw %struct.dsa_area_control, ptr %7, i32 0, i32 14
  %9 = call zeroext i1 @LWLockAcquire(ptr noundef %8, i32 noundef 0)
  %10 = load ptr, ptr %3, align 8
  %11 = getelementptr inbounds nuw %struct.dsa_area_control, ptr %10, i32 0, i32 10
  %12 = load i32, ptr %11, align 8
  %13 = add i32 %12, -1
  store i32 %13, ptr %11, align 8
  %14 = icmp eq i32 %13, 0
  br i1 %14, label %15, label %39

15:                                               ; preds = %1
  store i32 0, ptr %4, align 4
  br label %16

16:                                               ; preds = %35, %15
  %17 = load i32, ptr %4, align 4
  %18 = sext i32 %17 to i64
  %19 = load ptr, ptr %3, align 8
  %20 = getelementptr inbounds nuw %struct.dsa_area_control, ptr %19, i32 0, i32 9
  %21 = load i64, ptr %20, align 8
  %22 = icmp ule i64 %18, %21
  br i1 %22, label %23, label %38

23:                                               ; preds = %16
  call void @llvm.lifetime.start.p0(i64 4, ptr %5) #8
  %24 = load ptr, ptr %3, align 8
  %25 = getelementptr inbounds nuw %struct.dsa_area_control, ptr %24, i32 0, i32 2
  %26 = load i32, ptr %4, align 4
  %27 = sext i32 %26 to i64
  %28 = getelementptr inbounds [1024 x i32], ptr %25, i64 0, i64 %27
  %29 = load i32, ptr %28, align 4
  store i32 %29, ptr %5, align 4
  %30 = load i32, ptr %5, align 4
  %31 = icmp ne i32 %30, 0
  br i1 %31, label %32, label %34

32:                                               ; preds = %23
  %33 = load i32, ptr %5, align 4
  call void @dsm_unpin_segment(i32 noundef %33)
  br label %34

34:                                               ; preds = %32, %23
  call void @llvm.lifetime.end.p0(i64 4, ptr %5) #8
  br label %35

35:                                               ; preds = %34
  %36 = load i32, ptr %4, align 4
  %37 = add i32 %36, 1
  store i32 %37, ptr %4, align 4
  br label %16, !llvm.loop !7

38:                                               ; preds = %16
  br label %39

39:                                               ; preds = %38, %1
  %40 = load ptr, ptr %3, align 8
  %41 = getelementptr inbounds nuw %struct.dsa_area_control, ptr %40, i32 0, i32 14
  call void @LWLockRelease(ptr noundef %41)
  call void @llvm.lifetime.end.p0(i64 4, ptr %4) #8
  call void @llvm.lifetime.end.p0(i64 8, ptr %3) #8
  ret void
}

; Function Attrs: inlinehint nounwind uwtable
define internal ptr @DatumGetPointer(i64 noundef %0) #3 {
  %2 = alloca i64, align 8
  store i64 %0, ptr %2, align 8
  %3 = load i64, ptr %2, align 8
  %4 = inttoptr i64 %3 to ptr
  ret ptr %4
}

; Function Attrs: nounwind uwtable
define dso_local void @dsa_on_shmem_exit_release_in_place(i32 noundef %0, i64 noundef %1) #0 {
  %3 = alloca i32, align 4
  %4 = alloca i64, align 8
  store i32 %0, ptr %3, align 4
  store i64 %1, ptr %4, align 8
  %5 = load i64, ptr %4, align 8
  %6 = call ptr @DatumGetPointer(i64 noundef %5)
  call void @dsa_release_in_place(ptr noundef %6)
  ret void
}