; Function Attrs: nounwind uwtable
define dso_local void @dsa_on_shmem_exit_release_in_place(i32 noundef %0, i64 noundef %1) local_unnamed_addr #0 {
  %3 = inttoptr i64 %1 to ptr
  %4 = getelementptr inbounds nuw i8, ptr %3, i64 6172
  %5 = tail call zeroext i1 @LWLockAcquire(ptr noundef nonnull %4, i32 noundef 0) #11
  %6 = getelementptr inbounds nuw i8, ptr %3, i64 6152
  %7 = load i32, ptr %6, align 8
  %8 = add i32 %7, -1
  store i32 %8, ptr %6, align 8
  %9 = icmp eq i32 %8, 0
  br i1 %9, label %.preheader.i, label %dsa_release_in_place.exit

.preheader.i:                                     ; preds = %2
  %10 = getelementptr inbounds nuw i8, ptr %3, i64 6144
  %11 = getelementptr inbounds nuw i8, ptr %3, i64 60
  br label %12

12:                                               ; preds = %17, %.preheader.i
  %13 = phi i64 [ 0, %.preheader.i ], [ %19, %17 ]
  %.013.i = phi i32 [ 0, %.preheader.i ], [ %18, %17 ]
  %14 = getelementptr inbounds [1024 x i32], ptr %11, i64 0, i64 %13
  %15 = load i32, ptr %14, align 4
  %.not12.i = icmp eq i32 %15, 0
  br i1 %.not12.i, label %17, label %16

16:                                               ; preds = %12
  tail call void @dsm_unpin_segment(i32 noundef %15) #11
  br label %17

17:                                               ; preds = %16, %12
  %18 = add i32 %.013.i, 1
  %19 = sext i32 %18 to i64
  %20 = load i64, ptr %10, align 8
  %.not.i = icmp ult i64 %20, %19
  br i1 %.not.i, label %dsa_release_in_place.exit, label %12, !llvm.loop !7

dsa_release_in_place.exit:                        ; preds = %17, %2
  tail call void @LWLockRelease(ptr noundef nonnull %4) #11
  ret void
}